; Function Attrs: mustprogress nounwind uwtable
define hidden void @_ZNK7nmethod8print_onEP12outputStreamPKc(ptr nocapture noundef nonnull readonly align 8 dereferenceable(214) %0, ptr noundef %1, ptr noundef %2) local_unnamed_addr #0 align 2 {
  %.not = icmp eq ptr %1, null
  br i1 %.not, label %16, label %4

4:                                                ; preds = %3
  %5 = tail call noundef i64 @_ZN9ttyLocker8hold_ttyEv() #23
  %6 = getelementptr inbounds i8, ptr %0, i64 72
  %7 = load ptr, ptr %6, align 8
  %8 = getelementptr inbounds i8, ptr %0, i64 204
  %9 = load i32, ptr %8, align 4
  %10 = getelementptr inbounds i8, ptr %0, i64 208
  %11 = load i8, ptr %10, align 8
  %12 = sext i8 %11 to i32
  %13 = getelementptr inbounds i8, ptr %0, i64 148
  %14 = load i32, ptr %13, align 4
  %15 = icmp ne i32 %14, -1
  tail call void @_ZN11CompileTask10print_implEP12outputStreamP6MethodiibibPKcbbll(ptr noundef nonnull %1, ptr noundef %7, i32 noundef %9, i32 noundef %12, i1 noundef zeroext %15, i32 noundef %14, i1 noundef zeroext false, ptr noundef %2, i1 noundef zeroext false, i1 noundef zeroext true, i64 noundef 0, i64 noundef 0) #23
  tail call void @_ZN9ttyLocker11release_ttyEl(i64 noundef %5) #23
  br label %16

16:                                               ; preds = %4, %3
  ret void
}